; Function Attrs: nounwind uwtable
define dso_local i64 @to_tsvector(ptr noundef readonly captures(none) %0) local_unnamed_addr #0 {
  %2 = getelementptr inbounds nuw i8, ptr %0, i64 32
  %3 = load i64, ptr %2, align 8
  %4 = inttoptr i64 %3 to ptr
  %5 = tail call ptr @pg_detoast_datum_packed(ptr noundef %4) #8
  %6 = tail call i32 @getTSCurrentConfig(i1 noundef zeroext true) #8
  %7 = zext i32 %6 to i64
  %8 = ptrtoint ptr %5 to i64
  %9 = tail call i64 @DirectFunctionCall2Coll(ptr noundef nonnull @to_tsvector_byid, i32 noundef 0, i64 noundef %7, i64 noundef %8) #8
  ret i64 %9
}